; Function Attrs: nofree norecurse nosync nounwind memory(read, inaccessiblemem: none) uwtable
define range(i32 0, 2) i32 @Abc_NtkRetimeNodeIsEnabled(ptr noundef readonly captures(none) %0, i32 noundef %1) local_unnamed_addr #4 {
  %.not = icmp eq i32 %1, 0
  br i1 %.not, label %.preheader, label %.preheader27

.preheader27:                                     ; preds = %2
  %3 = getelementptr i8, ptr %0, i64 28
  %.val22 = load i32, ptr %3, align 4, !tbaa !40
  %4 = icmp sgt i32 %.val22, 0
  br i1 %4, label %.lr.ph, label %.critedge

.lr.ph:                                           ; preds = %.preheader27
  %.val23 = load ptr, ptr %0, align 8, !tbaa !33
  %5 = getelementptr i8, ptr %0, i64 32
  %.val24 = load ptr, ptr %5, align 8, !tbaa !41
  %6 = getelementptr i8, ptr %.val23, i64 32
  %.val23.val = load ptr, ptr %6, align 8, !tbaa !7
  %7 = getelementptr i8, ptr %.val23.val, i64 8
  %.val23.val.val = load ptr, ptr %7, align 8, !tbaa !28
  %wide.trip.count = zext nneg i32 %.val22 to i64
  br label %14

.preheader:                                       ; preds = %2
  %8 = getelementptr i8, ptr %0, i64 44
  %.val19 = load i32, ptr %8, align 4, !tbaa !30
  %9 = icmp sgt i32 %.val19, 0
  br i1 %9, label %.lr.ph34, label %.critedge

.lr.ph34:                                         ; preds = %.preheader
  %.val20 = load ptr, ptr %0, align 8, !tbaa !33
  %10 = getelementptr i8, ptr %0, i64 48
  %.val21 = load ptr, ptr %10, align 8, !tbaa !34
  %11 = getelementptr i8, ptr %.val20, i64 32
  %.val20.val = load ptr, ptr %11, align 8, !tbaa !7
  %12 = getelementptr i8, ptr %.val20.val, i64 8
  %.val20.val.val = load ptr, ptr %12, align 8, !tbaa !28
  %wide.trip.count44 = zext nneg i32 %.val19 to i64
  br label %23

13:                                               ; preds = %14
  %indvars.iv.next = add nuw nsw i64 %indvars.iv, 1
  %exitcond.not = icmp eq i64 %indvars.iv.next, %wide.trip.count
  br i1 %exitcond.not, label %.critedge, label %14, !llvm.loop !42

14:                                               ; preds = %.lr.ph, %13
  %indvars.iv = phi i64 [ 0, %.lr.ph ], [ %indvars.iv.next, %13 ]
  %15 = getelementptr inbounds nuw i32, ptr %.val24, i64 %indvars.iv
  %16 = load i32, ptr %15, align 4, !tbaa !3
  %17 = sext i32 %16 to i64
  %18 = getelementptr inbounds ptr, ptr %.val23.val.val, i64 %17
  %19 = load ptr, ptr %18, align 8, !tbaa !29
  %20 = getelementptr i8, ptr %19, i64 20
  %.val18 = load i32, ptr %20, align 4
  %21 = and i32 %.val18, 15
  %.not25 = icmp eq i32 %21, 8
  br i1 %.not25, label %13, label %.critedge

22:                                               ; preds = %23
  %indvars.iv.next42 = add nuw nsw i64 %indvars.iv41, 1
  %exitcond45.not = icmp eq i64 %indvars.iv.next42, %wide.trip.count44
  br i1 %exitcond45.not, label %.critedge, label %23, !llvm.loop !35

23:                                               ; preds = %.lr.ph34, %22
  %indvars.iv41 = phi i64 [ 0, %.lr.ph34 ], [ %indvars.iv.next42, %22 ]
  %24 = getelementptr inbounds nuw i32, ptr %.val21, i64 %indvars.iv41
  %25 = load i32, ptr %24, align 4, !tbaa !3
  %26 = sext i32 %25 to i64
  %27 = getelementptr inbounds ptr, ptr %.val20.val.val, i64 %26
  %28 = load ptr, ptr %27, align 8, !tbaa !29
  %29 = getelementptr i8, ptr %28, i64 20
  %.val = load i32, ptr %29, align 4
  %30 = and i32 %.val, 15
  %.not26 = icmp eq i32 %30, 8
  br i1 %.not26, label %22, label %.critedge

.critedge:                                        ; preds = %14, %13, %23, %22, %.preheader27, %.preheader
  %.015 = phi i32 [ 1, %.preheader ], [ 1, %.preheader27 ], [ 0, %23 ], [ 1, %22 ], [ 0, %14 ], [ 1, %13 ]
  ret i32 %.015
}